; Function Attrs: mustprogress uwtable
define void @_ZN32pxrInternal_v0_24__pxrReserved__13Plug_SetPathsERKSt6vectorINSt7__cxx1112basic_stringIcSt11char_traitsIcESaIcEEESaIS6_EESA_b(ptr noundef nonnull align 8 dereferenceable(24) %0, ptr noundef nonnull align 8 dereferenceable(24) %1, i1 noundef zeroext %2) local_unnamed_addr #0 {
  %4 = load atomic i8, ptr @_ZGVZN32pxrInternal_v0_24__pxrReserved__12_GLOBAL__N_117Plug_GetPathsInfoEvE9pathsInfo acquire, align 8
  %5 = icmp eq i8 %4, 0
  br i1 %5, label %6, label %_ZN32pxrInternal_v0_24__pxrReserved__12_GLOBAL__N_117Plug_GetPathsInfoEv.exit, !prof !8

6:                                                ; preds = %3
  %7 = tail call i32 @__cxa_guard_acquire(ptr nonnull @_ZGVZN32pxrInternal_v0_24__pxrReserved__12_GLOBAL__N_117Plug_GetPathsInfoEvE9pathsInfo) #15
  %.not.i = icmp eq i32 %7, 0
  br i1 %.not.i, label %_ZN32pxrInternal_v0_24__pxrReserved__12_GLOBAL__N_117Plug_GetPathsInfoEv.exit, label %8

8:                                                ; preds = %6
  tail call void @llvm.memset.p0.i64(ptr noundef nonnull align 8 dereferenceable(48) @_ZZN32pxrInternal_v0_24__pxrReserved__12_GLOBAL__N_117Plug_GetPathsInfoEvE9pathsInfo, i8 0, i64 48, i1 false)
  store i8 1, ptr getelementptr inbounds nuw (i8, ptr @_ZZN32pxrInternal_v0_24__pxrReserved__12_GLOBAL__N_117Plug_GetPathsInfoEvE9pathsInfo, i64 48), align 8
  %9 = tail call i32 @__cxa_atexit(ptr nonnull @_ZN32pxrInternal_v0_24__pxrReserved__12_GLOBAL__N_19PathsInfoD2Ev, ptr nonnull @_ZZN32pxrInternal_v0_24__pxrReserved__12_GLOBAL__N_117Plug_GetPathsInfoEvE9pathsInfo, ptr nonnull @__dso_handle) #15
  tail call void @__cxa_guard_release(ptr nonnull @_ZGVZN32pxrInternal_v0_24__pxrReserved__12_GLOBAL__N_117Plug_GetPathsInfoEvE9pathsInfo) #15
  br label %_ZN32pxrInternal_v0_24__pxrReserved__12_GLOBAL__N_117Plug_GetPathsInfoEv.exit

_ZN32pxrInternal_v0_24__pxrReserved__12_GLOBAL__N_117Plug_GetPathsInfoEv.exit: ; preds = %3, %6, %8
  %10 = zext i1 %2 to i8
  %11 = tail call noundef nonnull align 8 dereferenceable(24) ptr @_ZNSt6vectorINSt7__cxx1112basic_stringIcSt11char_traitsIcESaIcEEESaIS5_EEaSERKS7_(ptr noundef nonnull align 8 dereferenceable(24) @_ZZN32pxrInternal_v0_24__pxrReserved__12_GLOBAL__N_117Plug_GetPathsInfoEvE9pathsInfo, ptr noundef nonnull align 8 dereferenceable(24) %0)
  %12 = tail call noundef nonnull align 8 dereferenceable(24) ptr @_ZNSt6vectorINSt7__cxx1112basic_stringIcSt11char_traitsIcESaIcEEESaIS5_EEaSERKS7_(ptr noundef nonnull align 8 dereferenceable(24) getelementptr inbounds nuw (i8, ptr @_ZZN32pxrInternal_v0_24__pxrReserved__12_GLOBAL__N_117Plug_GetPathsInfoEvE9pathsInfo, i64 24), ptr noundef nonnull align 8 dereferenceable(24) %1)
  store i8 %10, ptr getelementptr inbounds nuw (i8, ptr @_ZZN32pxrInternal_v0_24__pxrReserved__12_GLOBAL__N_117Plug_GetPathsInfoEvE9pathsInfo, i64 48), align 8
  ret void
}